target datalayout = "e-m:e-p270:32:32-p271:32:32-p272:64:64-i64:64-i128:128-f80:128-n8:16:32:64-S128"
target triple = "x86_64-pc-linux-gnu"

%class.JvmtiVTMSTransitionDisabler = type { i8, ptr }
%class.VM_Operation = type { ptr, ptr }
%class.JvmtiUnitedHandshakeClosure.base = type <{ %class.HandshakeClosure, i32, [4 x i8], ptr, i8, i8 }>
%class.HandshakeClosure = type { %class.ThreadClosure, ptr }
%class.ThreadClosure = type { ptr }
%class.JvmtiUnitedHandshakeClosure = type <{ %class.HandshakeClosure, i32, [4 x i8], ptr, i8, i8, [6 x i8] }>
%class.MultipleStackTracesCollector = type { ptr, i32, ptr, i32, i32, ptr }
%class.GetSingleStackTraceClosure = type { %class.JvmtiUnitedHandshakeClosure.base, ptr, ptr, %class.MultipleStackTracesCollector }
%class.VM_GetThreadListStackTraces = type { %class.VM_Operation, i32, ptr, %class.MultipleStackTracesCollector }

@_ZN6Thread12_thr_currentE = external thread_local global ptr, align 8
@_ZTV13ThreadClosure = linkonce_odr hidden unnamed_addr constant { [3 x ptr] } { [3 x ptr] [ptr null, ptr null, ptr @__cxa_pure_virtual] }, comdat, align 8
@_ZTV12VM_Operation = external unnamed_addr constant { [12 x ptr] }, align 8
@.str.23 = private unnamed_addr constant [20 x i8] c"GetSingleStackTrace\00", align 1
@_ZTV26GetSingleStackTraceClosure = external unnamed_addr constant { [9 x ptr] }, align 8
@_ZTV27VM_GetThreadListStackTraces = external unnamed_addr constant { [12 x ptr] }, align 8

; Function Attrs: mustprogress nounwind uwtable
define linkonce_odr hidden void @_ZN13ThreadClosureC2Ev(ptr noundef nonnull align 8 dereferenceable(8) %0) unnamed_addr #1 comdat align 2 {
  %2 = alloca ptr, align 8
  store ptr %0, ptr %2, align 8
  %3 = load ptr, ptr %2, align 8
  store ptr getelementptr inbounds inrange(-16, 8) ({ [3 x ptr] }, ptr @_ZTV13ThreadClosure, i32 0, i32 0, i32 2), ptr %3, align 8
  ret void
}

; Function Attrs: mustprogress nounwind uwtable
define linkonce_odr hidden void @_ZN16HandshakeClosureD2Ev(ptr noundef nonnull align 8 dereferenceable(16) %0) unnamed_addr #1 comdat align 2 {
  %2 = alloca ptr, align 8
  store ptr %0, ptr %2, align 8
  ret void
}

; Function Attrs: mustprogress nounwind uwtable
define linkonce_odr hidden void @_ZN16HandshakeClosureC2EPKc(ptr noundef nonnull align 8 dereferenceable(16) %0, ptr noundef %1) unnamed_addr #1 comdat align 2 {
  %3 = alloca ptr, align 8
  %4 = alloca ptr, align 8
  store ptr %0, ptr %3, align 8
  store ptr %1, ptr %4, align 8
  %5 = load ptr, ptr %3, align 8
  call void @_ZN13ThreadClosureC2Ev(ptr noundef nonnull align 8 dereferenceable(8) %5) #9
  store ptr getelementptr inbounds inrange(-16, 48) ({ [8 x ptr] }, ptr @_ZTV16HandshakeClosure, i32 0, i32 0, i32 2), ptr %5, align 8
  %6 = getelementptr inbounds %class.HandshakeClosure, ptr %5, i32 0, i32 1
  %7 = load ptr, ptr %4, align 8
  store ptr %7, ptr %6, align 8
  ret void
}

; Function Attrs: mustprogress nounwind uwtable
define linkonce_odr hidden noundef ptr @_ZN6Thread15current_or_nullEv() #1 comdat align 2 {
  %1 = call align 8 ptr @llvm.threadlocal.address.p0(ptr align 8 @_ZN6Thread12_thr_currentE)
  %2 = load ptr, ptr %1, align 8
  ret ptr %2
}

; Function Attrs: mustprogress nounwind uwtable
define linkonce_odr hidden noundef i32 @_ZN28MultipleStackTracesCollector6resultEv(ptr noundef nonnull align 8 dereferenceable(40) %0) #1 comdat align 2 {
  %2 = alloca ptr, align 8
  store ptr %0, ptr %2, align 8
  %3 = load ptr, ptr %2, align 8
  %4 = getelementptr inbounds %class.MultipleStackTracesCollector, ptr %3, i32 0, i32 3
  %5 = load i32, ptr %4, align 8
  ret i32 %5
}

; Function Attrs: mustprogress nounwind uwtable
define linkonce_odr hidden void @_ZN12VM_OperationC2Ev(ptr noundef nonnull align 8 dereferenceable(16) %0) unnamed_addr #1 comdat align 2 {
  %2 = alloca ptr, align 8
  store ptr %0, ptr %2, align 8
  %3 = load ptr, ptr %2, align 8
  store ptr getelementptr inbounds inrange(-16, 80) ({ [12 x ptr] }, ptr @_ZTV12VM_Operation, i32 0, i32 0, i32 2), ptr %3, align 8
  %4 = getelementptr inbounds %class.VM_Operation, ptr %3, i32 0, i32 1
  store ptr null, ptr %4, align 8
  ret void
}

; Function Attrs: mustprogress nounwind uwtable
define linkonce_odr hidden void @_ZN27JvmtiUnitedHandshakeClosureD2Ev(ptr noundef nonnull align 8 dereferenceable(34) %0) unnamed_addr #1 comdat align 2 {
  %2 = alloca ptr, align 8
  store ptr %0, ptr %2, align 8
  %3 = load ptr, ptr %2, align 8
  call void @_ZN16HandshakeClosureD2Ev(ptr noundef nonnull align 8 dereferenceable(16) %3) #9
  ret void
}

; Function Attrs: mustprogress nounwind uwtable
define linkonce_odr hidden noundef ptr @_ZN28MultipleStackTracesCollector10stack_infoEv(ptr noundef nonnull align 8 dereferenceable(40) %0) #1 comdat align 2 {
  %2 = alloca ptr, align 8
  store ptr %0, ptr %2, align 8
  %3 = load ptr, ptr %2, align 8
  %4 = getelementptr inbounds %class.MultipleStackTracesCollector, ptr %3, i32 0, i32 2
  %5 = load ptr, ptr %4, align 8
  ret ptr %5
}

; Function Attrs: mustprogress nounwind uwtable
define linkonce_odr hidden void @_ZN28MultipleStackTracesCollectorC2EP8JvmtiEnvi(ptr noundef nonnull align 8 dereferenceable(40) %0, ptr noundef %1, i32 noundef %2) unnamed_addr #1 comdat align 2 {
  %4 = alloca ptr, align 8
  %5 = alloca ptr, align 8
  %6 = alloca i32, align 4
  store ptr %0, ptr %4, align 8
  store ptr %1, ptr %5, align 8
  store i32 %2, ptr %6, align 4
  %7 = load ptr, ptr %4, align 8
  %8 = getelementptr inbounds %class.MultipleStackTracesCollector, ptr %7, i32 0, i32 0
  %9 = load ptr, ptr %5, align 8
  store ptr %9, ptr %8, align 8
  %10 = getelementptr inbounds %class.MultipleStackTracesCollector, ptr %7, i32 0, i32 1
  %11 = load i32, ptr %6, align 4
  store i32 %11, ptr %10, align 8
  %12 = getelementptr inbounds %class.MultipleStackTracesCollector, ptr %7, i32 0, i32 2
  store ptr null, ptr %12, align 8
  %13 = getelementptr inbounds %class.MultipleStackTracesCollector, ptr %7, i32 0, i32 3
  store i32 0, ptr %13, align 8
  %14 = getelementptr inbounds %class.MultipleStackTracesCollector, ptr %7, i32 0, i32 4
  store i32 0, ptr %14, align 4
  %15 = getelementptr inbounds %class.MultipleStackTracesCollector, ptr %7, i32 0, i32 5
  store ptr null, ptr %15, align 8
  ret void
}

; Function Attrs: mustprogress nounwind uwtable
define linkonce_odr hidden void @_ZN27JvmtiUnitedHandshakeClosureC2EPKc(ptr noundef nonnull align 8 dereferenceable(34) %0, ptr noundef %1) unnamed_addr #1 comdat align 2 {
  %3 = alloca ptr, align 8
  %4 = alloca ptr, align 8
  store ptr %0, ptr %3, align 8
  store ptr %1, ptr %4, align 8
  %5 = load ptr, ptr %3, align 8
  %6 = load ptr, ptr %4, align 8
  call void @_ZN16HandshakeClosureC2EPKc(ptr noundef nonnull align 8 dereferenceable(16) %5, ptr noundef %6)
  store ptr getelementptr inbounds inrange(-16, 56) ({ [9 x ptr] }, ptr @_ZTV27JvmtiUnitedHandshakeClosure, i32 0, i32 0, i32 2), ptr %5, align 8
  %7 = getelementptr inbounds %class.JvmtiUnitedHandshakeClosure, ptr %5, i32 0, i32 1
  store i32 15, ptr %7, align 8
  %8 = getelementptr inbounds %class.JvmtiUnitedHandshakeClosure, ptr %5, i32 0, i32 3
  store ptr null, ptr %8, align 8
  %9 = getelementptr inbounds %class.JvmtiUnitedHandshakeClosure, ptr %5, i32 0, i32 4
  store i8 0, ptr %9, align 8
  %10 = getelementptr inbounds %class.JvmtiUnitedHandshakeClosure, ptr %5, i32 0, i32 5
  store i8 0, ptr %10, align 1
  ret void
}

; Function Attrs: mustprogress nounwind uwtable
define linkonce_odr hidden noundef ptr @_ZN10JavaThread4castEP6Thread(ptr noundef %0) #1 comdat align 2 {
  %2 = alloca ptr, align 8
  store ptr %0, ptr %2, align 8
  %3 = load ptr, ptr %2, align 8
  ret ptr %3
}

; Function Attrs: mustprogress nounwind uwtable
define linkonce_odr hidden noundef ptr @_ZN6Thread7currentEv() #1 comdat align 2 {
  %1 = alloca ptr, align 8
  %2 = call noundef ptr @_ZN6Thread15current_or_nullEv()
  store ptr %2, ptr %1, align 8
  %3 = load ptr, ptr %1, align 8
  ret ptr %3
}

; Function Attrs: mustprogress nounwind uwtable
define linkonce_odr hidden noundef ptr @_ZN27VM_GetThreadListStackTraces10stack_infoEv(ptr noundef nonnull align 8 dereferenceable(72) %0) #1 comdat align 2 {
  %2 = alloca ptr, align 8
  store ptr %0, ptr %2, align 8
  %3 = load ptr, ptr %2, align 8
  %4 = getelementptr inbounds %class.VM_GetThreadListStackTraces, ptr %3, i32 0, i32 3
  %5 = call noundef ptr @_ZN28MultipleStackTracesCollector10stack_infoEv(ptr noundef nonnull align 8 dereferenceable(40) %4)
  ret ptr %5
}

; Function Attrs: mustprogress nounwind uwtable
define linkonce_odr hidden noundef i32 @_ZN27VM_GetThreadListStackTraces6resultEv(ptr noundef nonnull align 8 dereferenceable(72) %0) #1 comdat align 2 {
  %2 = alloca ptr, align 8
  store ptr %0, ptr %2, align 8
  %3 = load ptr, ptr %2, align 8
  %4 = getelementptr inbounds %class.VM_GetThreadListStackTraces, ptr %3, i32 0, i32 3
  %5 = call noundef i32 @_ZN28MultipleStackTracesCollector6resultEv(ptr noundef nonnull align 8 dereferenceable(40) %4)
  ret i32 %5
}

; Function Attrs: mustprogress nounwind uwtable
define linkonce_odr hidden void @_ZN27VM_GetThreadListStackTracesC2EP8JvmtiEnviPKP8_jobjecti(ptr noundef nonnull align 8 dereferenceable(72) %0, ptr noundef %1, i32 noundef %2, ptr noundef %3, i32 noundef %4) unnamed_addr #1 comdat align 2 {
  %6 = alloca ptr, align 8
  %7 = alloca ptr, align 8
  %8 = alloca i32, align 4
  %9 = alloca ptr, align 8
  %10 = alloca i32, align 4
  store ptr %0, ptr %6, align 8
  store ptr %1, ptr %7, align 8
  store i32 %2, ptr %8, align 4
  store ptr %3, ptr %9, align 8
  store i32 %4, ptr %10, align 4
  %11 = load ptr, ptr %6, align 8
  call void @_ZN12VM_OperationC2Ev(ptr noundef nonnull align 8 dereferenceable(16) %11)
  store ptr getelementptr inbounds inrange(-16, 80) ({ [12 x ptr] }, ptr @_ZTV27VM_GetThreadListStackTraces, i32 0, i32 0, i32 2), ptr %11, align 8
  %12 = getelementptr inbounds %class.VM_GetThreadListStackTraces, ptr %11, i32 0, i32 1
  %13 = load i32, ptr %8, align 4
  store i32 %13, ptr %12, align 8
  %14 = getelementptr inbounds %class.VM_GetThreadListStackTraces, ptr %11, i32 0, i32 2
  %15 = load ptr, ptr %9, align 8
  store ptr %15, ptr %14, align 8
  %16 = getelementptr inbounds %class.VM_GetThreadListStackTraces, ptr %11, i32 0, i32 3
  %17 = load ptr, ptr %7, align 8
  %18 = load i32, ptr %10, align 4
  call void @_ZN28MultipleStackTracesCollectorC2EP8JvmtiEnvi(ptr noundef nonnull align 8 dereferenceable(40) %16, ptr noundef %17, i32 noundef %18)
  ret void
}

; Function Attrs: mustprogress nounwind uwtable
define linkonce_odr hidden void @_ZN26GetSingleStackTraceClosureD2Ev(ptr noundef nonnull align 8 dereferenceable(96) %0) unnamed_addr #1 comdat align 2 {
  %2 = alloca ptr, align 8
  store ptr %0, ptr %2, align 8
  %3 = load ptr, ptr %2, align 8
  call void @_ZN27JvmtiUnitedHandshakeClosureD2Ev(ptr noundef nonnull align 8 dereferenceable(34) %3) #9
  ret void
}

; Function Attrs: mustprogress nounwind uwtable
define linkonce_odr hidden noundef ptr @_ZN26GetSingleStackTraceClosure10stack_infoEv(ptr noundef nonnull align 8 dereferenceable(96) %0) #1 comdat align 2 {
  %2 = alloca ptr, align 8
  store ptr %0, ptr %2, align 8
  %3 = load ptr, ptr %2, align 8
  %4 = getelementptr inbounds %class.GetSingleStackTraceClosure, ptr %3, i32 0, i32 3
  %5 = call noundef ptr @_ZN28MultipleStackTracesCollector10stack_infoEv(ptr noundef nonnull align 8 dereferenceable(40) %4)
  ret ptr %5
}

; Function Attrs: mustprogress nounwind uwtable
define linkonce_odr hidden noundef i32 @_ZN26GetSingleStackTraceClosure6resultEv(ptr noundef nonnull align 8 dereferenceable(96) %0) #1 comdat align 2 {
  %2 = alloca ptr, align 8
  store ptr %0, ptr %2, align 8
  %3 = load ptr, ptr %2, align 8
  %4 = getelementptr inbounds %class.JvmtiUnitedHandshakeClosure, ptr %3, i32 0, i32 1
  %5 = load i32, ptr %4, align 8
  ret i32 %5
}

; Function Attrs: mustprogress nounwind uwtable
define linkonce_odr hidden void @_ZN26GetSingleStackTraceClosureC2EP8JvmtiEnvP10JavaThreadP8_jobjecti(ptr noundef nonnull align 8 dereferenceable(96) %0, ptr noundef %1, ptr noundef %2, ptr noundef %3, i32 noundef %4) unnamed_addr #1 comdat align 2 {
  %6 = alloca ptr, align 8
  %7 = alloca ptr, align 8
  %8 = alloca ptr, align 8
  %9 = alloca ptr, align 8
  %10 = alloca i32, align 4
  store ptr %0, ptr %6, align 8
  store ptr %1, ptr %7, align 8
  store ptr %2, ptr %8, align 8
  store ptr %3, ptr %9, align 8
  store i32 %4, ptr %10, align 4
  %11 = load ptr, ptr %6, align 8
  call void @_ZN27JvmtiUnitedHandshakeClosureC2EPKc(ptr noundef nonnull align 8 dereferenceable(34) %11, ptr noundef @.str.23)
  store ptr getelementptr inbounds inrange(-16, 56) ({ [9 x ptr] }, ptr @_ZTV26GetSingleStackTraceClosure, i32 0, i32 0, i32 2), ptr %11, align 8
  %12 = getelementptr inbounds %class.GetSingleStackTraceClosure, ptr %11, i32 0, i32 1
  %13 = load ptr, ptr %8, align 8
  store ptr %13, ptr %12, align 8
  %14 = getelementptr inbounds %class.GetSingleStackTraceClosure, ptr %11, i32 0, i32 2
  %15 = load ptr, ptr %9, align 8
  store ptr %15, ptr %14, align 8
  %16 = getelementptr inbounds %class.GetSingleStackTraceClosure, ptr %11, i32 0, i32 3
  %17 = load ptr, ptr %7, align 8
  %18 = load i32, ptr %10, align 4
  call void @_ZN28MultipleStackTracesCollectorC2EP8JvmtiEnvi(ptr noundef nonnull align 8 dereferenceable(40) %16, ptr noundef %17, i32 noundef %18)
  ret void
}

; Function Attrs: mustprogress nounwind uwtable
define linkonce_odr hidden noundef ptr @_ZN10JavaThread7currentEv() #1 comdat align 2 {
  %1 = call noundef ptr @_ZN6Thread7currentEv()
  %2 = call noundef ptr @_ZN10JavaThread4castEP6Thread(ptr noundef %1)
  ret ptr %2
}

; Function Attrs: mustprogress nounwind uwtable
define hidden noundef i32 @_ZN8JvmtiEnv24GetThreadListStackTracesEiPKP8_jobjectiPP14jvmtiStackInfo(ptr noundef nonnull align 8 dereferenceable(460) %0, i32 noundef %1, ptr noundef %2, i32 noundef %3, ptr noundef %4) #1 align 2 {
  %6 = alloca ptr, align 8
  %7 = alloca i32, align 4
  %8 = alloca ptr, align 8
  %9 = alloca i32, align 4
  %10 = alloca ptr, align 8
  %11 = alloca i32, align 4
  %12 = alloca ptr, align 8
  %13 = alloca ptr, align 8
  %14 = alloca %class.GetSingleStackTraceClosure, align 8
  %15 = alloca %class.JvmtiVTMSTransitionDisabler, align 8
  %16 = alloca %class.VM_GetThreadListStackTraces, align 8
  store ptr %0, ptr %6, align 8
  store i32 %1, ptr %7, align 4
  store ptr %2, ptr %8, align 8
  store i32 %3, ptr %9, align 4
  store ptr %4, ptr %10, align 8
  %17 = load ptr, ptr %6, align 8
  store i32 0, ptr %11, align 4
  %18 = load i32, ptr %7, align 4
  %19 = icmp eq i32 %18, 1
  br i1 %19, label %20, label %36

20:                                               ; preds = %5
  %21 = call noundef ptr @_ZN10JavaThread7currentEv()
  store ptr %21, ptr %12, align 8
  %22 = load ptr, ptr %8, align 8
  %23 = getelementptr inbounds ptr, ptr %22, i64 0
  %24 = load ptr, ptr %23, align 8
  store ptr %24, ptr %13, align 8
  %25 = load ptr, ptr %12, align 8
  %26 = load ptr, ptr %13, align 8
  %27 = load i32, ptr %9, align 4
  call void @_ZN26GetSingleStackTraceClosureC2EP8JvmtiEnvP10JavaThreadP8_jobjecti(ptr noundef nonnull align 8 dereferenceable(96) %14, ptr noundef %17, ptr noundef %25, ptr noundef %26, i32 noundef %27)
  %28 = load ptr, ptr %13, align 8
  call void @_ZN14JvmtiHandshake7executeEP27JvmtiUnitedHandshakeClosureP8_jobject(ptr noundef %14, ptr noundef %28)
  %29 = call noundef i32 @_ZN26GetSingleStackTraceClosure6resultEv(ptr noundef nonnull align 8 dereferenceable(96) %14)
  store i32 %29, ptr %11, align 4
  %30 = load i32, ptr %11, align 4
  %31 = icmp eq i32 %30, 0
  br i1 %31, label %32, label %35

32:                                               ; preds = %20
  %33 = call noundef ptr @_ZN26GetSingleStackTraceClosure10stack_infoEv(ptr noundef nonnull align 8 dereferenceable(96) %14)
  %34 = load ptr, ptr %10, align 8
  store ptr %33, ptr %34, align 8
  br label %35

35:                                               ; preds = %32, %20
  call void @_ZN26GetSingleStackTraceClosureD2Ev(ptr noundef nonnull align 8 dereferenceable(96) %14) #9
  br label %47

36:                                               ; preds = %5
  call void @_ZN27JvmtiVTMSTransitionDisablerC1Eb(ptr noundef nonnull align 8 dereferenceable(16) %15, i1 noundef zeroext false)
  %37 = load i32, ptr %7, align 4
  %38 = load ptr, ptr %8, align 8
  %39 = load i32, ptr %9, align 4
  call void @_ZN27VM_GetThreadListStackTracesC2EP8JvmtiEnviPKP8_jobjecti(ptr noundef nonnull align 8 dereferenceable(72) %16, ptr noundef %17, i32 noundef %37, ptr noundef %38, i32 noundef %39)
  call void @_ZN8VMThread7executeEP12VM_Operation(ptr noundef %16)
  %40 = call noundef i32 @_ZN27VM_GetThreadListStackTraces6resultEv(ptr noundef nonnull align 8 dereferenceable(72) %16)
  store i32 %40, ptr %11, align 4
  %41 = load i32, ptr %11, align 4
  %42 = icmp eq i32 %41, 0
  br i1 %42, label %43, label %46

43:                                               ; preds = %36
  %44 = call noundef ptr @_ZN27VM_GetThreadListStackTraces10stack_infoEv(ptr noundef nonnull align 8 dereferenceable(72) %16)
  %45 = load ptr, ptr %10, align 8
  store ptr %44, ptr %45, align 8
  br label %46

46:                                               ; preds = %43, %36
  call void @_ZN27JvmtiVTMSTransitionDisablerD1Ev(ptr noundef nonnull align 8 dereferenceable(16) %15) #9
  br label %47

47:                                               ; preds = %46, %35
  %48 = load i32, ptr %11, align 4
  ret i32 %48
}