; Function Attrs: mustprogress nounwind uwtable
define hidden noundef i32 @_ZN8JvmtiEnv24GetThreadListStackTracesEiPKP8_jobjectiPP14jvmtiStackInfo(ptr noundef nonnull align 8 dereferenceable(460) %0, i32 noundef %1, ptr noundef %2, i32 noundef %3, ptr nocapture noundef writeonly %4) local_unnamed_addr #0 align 2 {
  %6 = alloca %class.GetSingleStackTraceClosure, align 8
  %7 = alloca %class.JvmtiVTMSTransitionDisabler, align 8
  %8 = alloca %class.VM_GetThreadListStackTraces, align 8
  %9 = icmp eq i32 %1, 1
  br i1 %9, label %10, label %28

10:                                               ; preds = %5
  %11 = tail call align 8 ptr @llvm.threadlocal.address.p0(ptr align 8 @_ZN6Thread12_thr_currentE)
  %12 = load ptr, ptr %11, align 8
  %13 = load ptr, ptr %2, align 8
  %14 = getelementptr inbounds i8, ptr %6, i64 8
  store ptr @.str.23, ptr %14, align 8
  %15 = getelementptr inbounds i8, ptr %6, i64 16
  store i32 15, ptr %15, align 8
  %16 = getelementptr inbounds i8, ptr %6, i64 24
  store ptr null, ptr %16, align 8
  %17 = getelementptr inbounds i8, ptr %6, i64 32
  store i8 0, ptr %17, align 8
  %18 = getelementptr inbounds i8, ptr %6, i64 33
  store i8 0, ptr %18, align 1
  store ptr getelementptr inbounds inrange(-16, 56) (i8, ptr @_ZTV26GetSingleStackTraceClosure, i64 16), ptr %6, align 8
  %19 = getelementptr inbounds i8, ptr %6, i64 40
  store ptr %12, ptr %19, align 8
  %20 = getelementptr inbounds i8, ptr %6, i64 48
  store ptr %13, ptr %20, align 8
  %21 = getelementptr inbounds i8, ptr %6, i64 56
  store ptr %0, ptr %21, align 8
  %22 = getelementptr inbounds i8, ptr %6, i64 64
  store i32 %3, ptr %22, align 8
  %23 = getelementptr inbounds i8, ptr %6, i64 72
  call void @llvm.memset.p0.i64(ptr noundef nonnull align 8 dereferenceable(24) %23, i8 0, i64 24, i1 false)
  call void @_ZN14JvmtiHandshake7executeEP27JvmtiUnitedHandshakeClosureP8_jobject(ptr noundef nonnull %6, ptr noundef %13) #17
  %24 = load i32, ptr %15, align 8
  %25 = icmp eq i32 %24, 0
  br i1 %25, label %26, label %41

26:                                               ; preds = %10
  %27 = load ptr, ptr %23, align 8
  store ptr %27, ptr %4, align 8
  br label %41

28:                                               ; preds = %5
  call void @_ZN27JvmtiVTMSTransitionDisablerC1Eb(ptr noundef nonnull align 8 dereferenceable(16) %7, i1 noundef zeroext false) #17
  %29 = getelementptr inbounds i8, ptr %8, i64 8
  store ptr null, ptr %29, align 8
  store ptr getelementptr inbounds inrange(-16, 80) (i8, ptr @_ZTV27VM_GetThreadListStackTraces, i64 16), ptr %8, align 8
  %30 = getelementptr inbounds i8, ptr %8, i64 16
  store i32 %1, ptr %30, align 8
  %31 = getelementptr inbounds i8, ptr %8, i64 24
  store ptr %2, ptr %31, align 8
  %32 = getelementptr inbounds i8, ptr %8, i64 32
  store ptr %0, ptr %32, align 8
  %33 = getelementptr inbounds i8, ptr %8, i64 40
  store i32 %3, ptr %33, align 8
  %34 = getelementptr inbounds i8, ptr %8, i64 48
  call void @llvm.memset.p0.i64(ptr noundef nonnull align 8 dereferenceable(24) %34, i8 0, i64 24, i1 false)
  call void @_ZN8VMThread7executeEP12VM_Operation(ptr noundef nonnull %8) #17
  %35 = getelementptr inbounds i8, ptr %8, i64 56
  %36 = load i32, ptr %35, align 8
  %37 = icmp eq i32 %36, 0
  br i1 %37, label %38, label %40

38:                                               ; preds = %28
  %39 = load ptr, ptr %34, align 8
  store ptr %39, ptr %4, align 8
  br label %40

40:                                               ; preds = %38, %28
  call void @_ZN27JvmtiVTMSTransitionDisablerD1Ev(ptr noundef nonnull align 8 dereferenceable(16) %7) #17
  br label %41

41:                                               ; preds = %10, %26, %40
  %.0 = phi i32 [ %36, %40 ], [ 0, %26 ], [ %24, %10 ]
  ret i32 %.0
}